target datalayout = "e-m:e-p270:32:32-p271:32:32-p272:64:64-i64:64-i128:128-f80:128-n8:16:32:64-S128"
target triple = "x86_64-pc-linux-gnu"

%struct.llama_sampler = type { ptr, ptr }
%struct.llama_sampler_grammar = type { ptr, %"class.std::__cxx11::basic_string", %"class.std::__cxx11::basic_string", ptr }
%"class.std::__cxx11::basic_string" = type { %"struct.std::__cxx11::basic_string<char>::_Alloc_hider", i64, %union.anon }
%"struct.std::__cxx11::basic_string<char>::_Alloc_hider" = type { ptr }
%union.anon = type { i64, [8 x i8] }

; Function Attrs: mustprogress uwtable
define available_externally noundef nonnull align 8 dereferenceable(32) ptr @_ZNSt7__cxx1112basic_stringIcSt11char_traitsIcESaIcEE6assignERKS4_(ptr noundef nonnull align 8 dereferenceable(32) %0, ptr noundef nonnull align 8 dereferenceable(32) %1) #0 align 2 {
  %3 = alloca ptr, align 8
  %4 = alloca ptr, align 8
  store ptr %0, ptr %3, align 8, !tbaa !185
  store ptr %1, ptr %4, align 8, !tbaa !185
  %5 = load ptr, ptr %3, align 8
  %6 = load ptr, ptr %4, align 8, !tbaa !185
  call void @_ZNSt7__cxx1112basic_stringIcSt11char_traitsIcESaIcEE9_M_assignERKS4_(ptr noundef nonnull align 8 dereferenceable(32) %5, ptr noundef nonnull align 8 dereferenceable(32) %6)
  ret ptr %5
}

; Function Attrs: mustprogress uwtable
define available_externally noundef nonnull align 8 dereferenceable(32) ptr @_ZNSt7__cxx1112basic_stringIcSt11char_traitsIcESaIcEEaSERKS4_(ptr noundef nonnull align 8 dereferenceable(32) %0, ptr noundef nonnull align 8 dereferenceable(32) %1) #0 align 2 {
  %3 = alloca ptr, align 8
  %4 = alloca ptr, align 8
  store ptr %0, ptr %3, align 8, !tbaa !185
  store ptr %1, ptr %4, align 8, !tbaa !185
  %5 = load ptr, ptr %3, align 8
  %6 = load ptr, ptr %4, align 8, !tbaa !185
  %7 = call noundef nonnull align 8 dereferenceable(32) ptr @_ZNSt7__cxx1112basic_stringIcSt11char_traitsIcESaIcEE6assignERKS4_(ptr noundef nonnull align 8 dereferenceable(32) %5, ptr noundef nonnull align 8 dereferenceable(32) %6)
  ret ptr %7
}

; Function Attrs: mustprogress uwtable
define internal noundef ptr @_ZL27llama_sampler_grammar_clonePK13llama_sampler(ptr noundef %0) #0 {
  %2 = alloca ptr, align 8
  %3 = alloca ptr, align 8
  %4 = alloca ptr, align 8
  %5 = alloca ptr, align 8
  store ptr %0, ptr %2, align 8, !tbaa !12
  call void @llvm.lifetime.start.p0(i64 8, ptr %3) #14
  %6 = load ptr, ptr %2, align 8, !tbaa !12
  %7 = getelementptr inbounds nuw %struct.llama_sampler, ptr %6, i32 0, i32 1
  %8 = load ptr, ptr %7, align 8, !tbaa !11
  store ptr %8, ptr %3, align 8, !tbaa !137
  call void @llvm.lifetime.start.p0(i64 8, ptr %4) #14
  %9 = load ptr, ptr %3, align 8, !tbaa !137
  %10 = getelementptr inbounds nuw %struct.llama_sampler_grammar, ptr %9, i32 0, i32 0
  %11 = load ptr, ptr %10, align 8, !tbaa !140
  %12 = call noundef ptr @_ZL31llama_sampler_init_grammar_implPK11llama_vocabPKcS3_bPS3_mPKim(ptr noundef %11, ptr noundef null, ptr noundef null, i1 noundef zeroext false, ptr noundef null, i64 noundef 0, ptr noundef null, i64 noundef 0)
  store ptr %12, ptr %4, align 8, !tbaa !12
  call void @llvm.lifetime.start.p0(i64 8, ptr %5) #14
  %13 = load ptr, ptr %4, align 8, !tbaa !12
  %14 = getelementptr inbounds nuw %struct.llama_sampler, ptr %13, i32 0, i32 1
  %15 = load ptr, ptr %14, align 8, !tbaa !11
  store ptr %15, ptr %5, align 8, !tbaa !137
  %16 = load ptr, ptr %3, align 8, !tbaa !137
  %17 = getelementptr inbounds nuw %struct.llama_sampler_grammar, ptr %16, i32 0, i32 3
  %18 = load ptr, ptr %17, align 8, !tbaa !145
  %19 = icmp ne ptr %18, null
  br i1 %19, label %20, label %37

20:                                               ; preds = %1
  %21 = load ptr, ptr %3, align 8, !tbaa !137
  %22 = getelementptr inbounds nuw %struct.llama_sampler_grammar, ptr %21, i32 0, i32 1
  %23 = load ptr, ptr %5, align 8, !tbaa !137
  %24 = getelementptr inbounds nuw %struct.llama_sampler_grammar, ptr %23, i32 0, i32 1
  %25 = call noundef nonnull align 8 dereferenceable(32) ptr @_ZNSt7__cxx1112basic_stringIcSt11char_traitsIcESaIcEEaSERKS4_(ptr noundef nonnull align 8 dereferenceable(32) %24, ptr noundef nonnull align 8 dereferenceable(32) %22)
  %26 = load ptr, ptr %3, align 8, !tbaa !137
  %27 = getelementptr inbounds nuw %struct.llama_sampler_grammar, ptr %26, i32 0, i32 2
  %28 = load ptr, ptr %5, align 8, !tbaa !137
  %29 = getelementptr inbounds nuw %struct.llama_sampler_grammar, ptr %28, i32 0, i32 2
  %30 = call noundef nonnull align 8 dereferenceable(32) ptr @_ZNSt7__cxx1112basic_stringIcSt11char_traitsIcESaIcEEaSERKS4_(ptr noundef nonnull align 8 dereferenceable(32) %29, ptr noundef nonnull align 8 dereferenceable(32) %27)
  %31 = load ptr, ptr %3, align 8, !tbaa !137
  %32 = getelementptr inbounds nuw %struct.llama_sampler_grammar, ptr %31, i32 0, i32 3
  %33 = load ptr, ptr %32, align 8, !tbaa !145
  %34 = call noundef ptr @_Z24llama_grammar_clone_implRK13llama_grammar(ptr noundef nonnull align 8 dereferenceable(152) %33)
  %35 = load ptr, ptr %5, align 8, !tbaa !137
  %36 = getelementptr inbounds nuw %struct.llama_sampler_grammar, ptr %35, i32 0, i32 3
  store ptr %34, ptr %36, align 8, !tbaa !145
  br label %37

37:                                               ; preds = %20, %1
  call void @llvm.lifetime.end.p0(i64 8, ptr %5) #14
  %38 = load ptr, ptr %4, align 8, !tbaa !12
  call void @llvm.lifetime.end.p0(i64 8, ptr %4) #14
  call void @llvm.lifetime.end.p0(i64 8, ptr %3) #14
  ret ptr %38
}