; Function Attrs: mustprogress uwtable
define internal noalias noundef nonnull ptr @_ZL27llama_sampler_grammar_clonePK13llama_sampler(ptr noundef readonly captures(none) %0) #0 {
  %2 = getelementptr inbounds nuw i8, ptr %0, i64 8
  %3 = load ptr, ptr %2, align 8, !tbaa !9
  %4 = load ptr, ptr %3, align 8, !tbaa !96
  %5 = tail call fastcc noundef ptr @_ZL31llama_sampler_init_grammar_implPK11llama_vocabPKcS3_bPS3_mPKim(ptr noundef %4, ptr noundef null, ptr noundef null, i1 noundef zeroext false, ptr noundef null, i64 noundef 0, ptr noundef null, i64 noundef 0)
  %6 = getelementptr inbounds nuw i8, ptr %3, i64 72
  %7 = load ptr, ptr %6, align 8, !tbaa !100
  %.not = icmp eq ptr %7, null
  br i1 %.not, label %18, label %8

8:                                                ; preds = %1
  %9 = getelementptr inbounds nuw i8, ptr %5, i64 8
  %10 = load ptr, ptr %9, align 8, !tbaa !9
  %11 = getelementptr inbounds nuw i8, ptr %3, i64 8
  %12 = getelementptr inbounds nuw i8, ptr %10, i64 8
  tail call void @_ZNSt7__cxx1112basic_stringIcSt11char_traitsIcESaIcEE9_M_assignERKS4_(ptr noundef nonnull align 8 dereferenceable(32) %12, ptr noundef nonnull align 8 dereferenceable(32) %11)
  %13 = getelementptr inbounds nuw i8, ptr %3, i64 40
  %14 = getelementptr inbounds nuw i8, ptr %10, i64 40
  tail call void @_ZNSt7__cxx1112basic_stringIcSt11char_traitsIcESaIcEE9_M_assignERKS4_(ptr noundef nonnull align 8 dereferenceable(32) %14, ptr noundef nonnull align 8 dereferenceable(32) %13)
  %15 = load ptr, ptr %6, align 8, !tbaa !100
  %16 = tail call noundef ptr @_Z24llama_grammar_clone_implRK13llama_grammar(ptr noundef nonnull align 8 dereferenceable(152) %15)
  %17 = getelementptr inbounds nuw i8, ptr %10, i64 72
  store ptr %16, ptr %17, align 8, !tbaa !100
  br label %18

18:                                               ; preds = %8, %1
  ret ptr %5
}